target datalayout = "e-m:e-p270:32:32-p271:32:32-p272:64:64-i64:64-i128:128-f80:128-n8:16:32:64-S128"
target triple = "x86_64-pc-linux-gnu"

; Function Attrs: mustprogress nounwind uwtable
define hidden noundef i32 @_ZN8JvmtiEnv37IterateOverObjectsReachableFromObjectEP8_jobjectPF21jvmtiIterationControl24jvmtiObjectReferenceKindllPlliPvEPKv(ptr noundef nonnull align 8 dereferenceable(460) %0, ptr noundef %1, ptr noundef %2, ptr noundef %3) #1 align 2 {
  %5 = alloca i32, align 4
  %6 = alloca ptr, align 8
  %7 = alloca ptr, align 8
  %8 = alloca ptr, align 8
  %9 = alloca ptr, align 8
  %10 = alloca ptr, align 8
  store ptr %0, ptr %6, align 8
  store ptr %1, ptr %7, align 8
  store ptr %2, ptr %8, align 8
  store ptr %3, ptr %9, align 8
  %11 = load ptr, ptr %6, align 8
  %12 = load ptr, ptr %7, align 8
  %13 = call noundef ptr @_ZN10JNIHandles22resolve_external_guardEP8_jobject(ptr noundef %12)
  store ptr %13, ptr %10, align 8
  %14 = load ptr, ptr %10, align 8
  %15 = icmp eq ptr %14, null
  br i1 %15, label %16, label %17

16:                                               ; preds = %4
  store i32 20, ptr %5, align 4
  br label %22

17:                                               ; preds = %4
  %18 = call noundef ptr @_ZN11JvmtiTagMap11tag_map_forEP8JvmtiEnv(ptr noundef %11)
  %19 = load ptr, ptr %7, align 8
  %20 = load ptr, ptr %8, align 8
  %21 = load ptr, ptr %9, align 8
  call void @_ZN11JvmtiTagMap42iterate_over_objects_reachable_from_objectEP8_jobjectPF21jvmtiIterationControl24jvmtiObjectReferenceKindllPlliPvEPKv(ptr noundef nonnull align 8 dereferenceable(122) %18, ptr noundef %19, ptr noundef %20, ptr noundef %21)
  store i32 0, ptr %5, align 4
  br label %22

22:                                               ; preds = %17, %16
  %23 = load i32, ptr %5, align 4
  ret i32 %23
}