; Function Attrs: mustprogress nounwind uwtable
define hidden noundef range(i32 0, 21) i32 @_ZN8JvmtiEnv37IterateOverObjectsReachableFromObjectEP8_jobjectPF21jvmtiIterationControl24jvmtiObjectReferenceKindllPlliPvEPKv(ptr noundef nonnull align 8 dereferenceable(460) %0, ptr noundef %1, ptr noundef %2, ptr noundef %3) local_unnamed_addr #0 align 2 {
  %5 = tail call noundef ptr @_ZN10JNIHandles22resolve_external_guardEP8_jobject(ptr noundef %1) #17
  %6 = icmp eq ptr %5, null
  br i1 %6, label %9, label %7

7:                                                ; preds = %4
  %8 = tail call noundef ptr @_ZN11JvmtiTagMap11tag_map_forEP8JvmtiEnv(ptr noundef nonnull %0) #17
  tail call void @_ZN11JvmtiTagMap42iterate_over_objects_reachable_from_objectEP8_jobjectPF21jvmtiIterationControl24jvmtiObjectReferenceKindllPlliPvEPKv(ptr noundef nonnull align 8 dereferenceable(122) %8, ptr noundef %1, ptr noundef %2, ptr noundef %3) #17
  br label %9

9:                                                ; preds = %4, %7
  %.0 = phi i32 [ 0, %7 ], [ 20, %4 ]
  ret i32 %.0
}